; Function Attrs: nounwind uwtable
define dso_local range(i32 0, 2) i32 @WPACKET_start_sub_packet_len__(ptr noundef captures(none) %0, i64 noundef %1) local_unnamed_addr #0 {
  %3 = alloca ptr, align 8
  call void @llvm.lifetime.start.p0(i64 8, ptr nonnull %3) #12
  %4 = getelementptr inbounds nuw i8, ptr %0, i64 40
  %5 = load ptr, ptr %4, align 8, !tbaa !4
  %.not = icmp eq ptr %5, null
  br i1 %.not, label %25, label %6, !prof !24

6:                                                ; preds = %2
  %.not20 = icmp eq i64 %1, 0
  br i1 %.not20, label %11, label %7

7:                                                ; preds = %6
  %8 = getelementptr inbounds nuw i8, ptr %0, i64 48
  %9 = load i8, ptr %8, align 8
  %10 = and i8 %9, 1
  %.not21 = icmp eq i8 %10, 0
  br i1 %.not21, label %11, label %25

11:                                               ; preds = %7, %6
  %12 = tail call noalias ptr @CRYPTO_zalloc(i64 noundef 40, ptr noundef nonnull @.str, i32 noundef 379) #12
  %13 = icmp eq ptr %12, null
  br i1 %13, label %25, label %14

14:                                               ; preds = %11
  %15 = load ptr, ptr %4, align 8, !tbaa !4
  store ptr %15, ptr %12, align 8, !tbaa !25
  store ptr %12, ptr %4, align 8, !tbaa !4
  %16 = getelementptr inbounds nuw i8, ptr %0, i64 24
  %17 = load i64, ptr %16, align 8, !tbaa !16
  %18 = add i64 %17, %1
  %19 = getelementptr inbounds nuw i8, ptr %12, i64 24
  store i64 %18, ptr %19, align 8, !tbaa !27
  %20 = getelementptr inbounds nuw i8, ptr %12, i64 16
  store i64 %1, ptr %20, align 8, !tbaa !28
  %21 = getelementptr inbounds nuw i8, ptr %12, i64 8
  br i1 %.not20, label %22, label %23

22:                                               ; preds = %14
  store i64 0, ptr %21, align 8, !tbaa !29
  br label %25

23:                                               ; preds = %14
  store i64 %17, ptr %21, align 8, !tbaa !29
  %24 = call i32 @WPACKET_allocate_bytes(ptr noundef nonnull %0, i64 noundef %1, ptr noundef nonnull %3)
  br label %25

25:                                               ; preds = %23, %11, %7, %2, %22
  %.0 = phi i32 [ 1, %22 ], [ 0, %2 ], [ 0, %7 ], [ 0, %11 ], [ %24, %23 ]
  call void @llvm.lifetime.end.p0(i64 8, ptr nonnull %3) #12
  ret i32 %.0
}